; Function Attrs: nounwind uwtable
define dso_local zeroext i1 @pgstat_have_entry(i32 noundef %0, i32 noundef %1, i64 noundef %2) local_unnamed_addr #0 {
  %4 = add i32 %0, -1
  %5 = icmp ult i32 %4, 12
  br i1 %5, label %6, label %9

6:                                                ; preds = %3
  %7 = zext nneg i32 %0 to i64
  %8 = getelementptr inbounds nuw [13 x %struct.PgStat_KindInfo], ptr @pgstat_kind_builtin_infos, i64 0, i64 %7
  br label %pgstat_get_kind_info.exit

9:                                                ; preds = %3
  %10 = load ptr, ptr @pgstat_kind_custom_infos, align 8, !nonnull !7, !noundef !7
  %11 = sext i32 %0 to i64
  %12 = getelementptr ptr, ptr %10, i64 %11
  %13 = getelementptr i8, ptr %12, i64 -1024
  %14 = load ptr, ptr %13, align 8
  br label %pgstat_get_kind_info.exit

pgstat_get_kind_info.exit:                        ; preds = %6, %9
  %.0.i = phi ptr [ %8, %6 ], [ %14, %9 ]
  %15 = load i8, ptr %.0.i, align 8
  %16 = trunc i8 %15 to i1
  br i1 %16, label %20, label %17

17:                                               ; preds = %pgstat_get_kind_info.exit
  %18 = tail call ptr @pgstat_get_entry_ref(i32 noundef %0, i32 noundef %1, i64 noundef %2, i1 noundef zeroext false, ptr noundef null) #17
  %19 = icmp ne ptr %18, null
  br label %20

20:                                               ; preds = %pgstat_get_kind_info.exit, %17
  %.0 = phi i1 [ %19, %17 ], [ true, %pgstat_get_kind_info.exit ]
  ret i1 %.0
}